target datalayout = "e-m:e-p270:32:32-p271:32:32-p272:64:64-i64:64-i128:128-f80:128-n8:16:32:64-S128"
target triple = "x86_64-pc-linux-gnu"

%struct.job_info_msg = type { i64, i64, i32, ptr }

@scontrol_load_job.last_show_flags = internal global i16 -1, align 2
@all_flag = external global i32, align 4
@detail_flag = external global i32, align 4
@federation_flag = external global i32, align 4
@local_flag = external global i32, align 4
@sibling_flag = external global i32, align 4
@old_job_info_ptr = external global ptr, align 8
@quiet_flag = external global i32, align 4
@.str = private unnamed_addr constant [35 x i8] c"slurm_load_jobs no change in data\0A\00", align 1

; Function Attrs: nounwind uwtable
define dso_local i32 @scontrol_load_job(ptr noundef %0, i32 noundef %1) #0 {
  %3 = alloca ptr, align 8
  %4 = alloca i32, align 4
  %5 = alloca i32, align 4
  %6 = alloca i16, align 2
  %7 = alloca ptr, align 8
  store ptr %0, ptr %3, align 8
  store i32 %1, ptr %4, align 4
  call void @llvm.lifetime.start.p0(i64 4, ptr %5) #9
  call void @llvm.lifetime.start.p0(i64 2, ptr %6) #9
  store i16 0, ptr %6, align 2
  call void @llvm.lifetime.start.p0(i64 8, ptr %7) #9
  store ptr null, ptr %7, align 8
  %8 = load i32, ptr @all_flag, align 4
  %9 = icmp ne i32 %8, 0
  br i1 %9, label %10, label %15

10:                                               ; preds = %2
  %11 = load i16, ptr %6, align 2
  %12 = zext i16 %11 to i64
  %13 = or i64 %12, 1
  %14 = trunc i64 %13 to i16
  store i16 %14, ptr %6, align 2
  br label %15

15:                                               ; preds = %10, %2
  %16 = load i32, ptr @detail_flag, align 4
  %17 = icmp ne i32 %16, 0
  br i1 %17, label %18, label %23

18:                                               ; preds = %15
  %19 = load i16, ptr %6, align 2
  %20 = zext i16 %19 to i64
  %21 = or i64 %20, 2
  %22 = trunc i64 %21 to i16
  store i16 %22, ptr %6, align 2
  br label %23

23:                                               ; preds = %18, %15
  %24 = load i32, ptr @federation_flag, align 4
  %25 = icmp ne i32 %24, 0
  br i1 %25, label %26, label %31

26:                                               ; preds = %23
  %27 = load i16, ptr %6, align 2
  %28 = zext i16 %27 to i64
  %29 = or i64 %28, 64
  %30 = trunc i64 %29 to i16
  store i16 %30, ptr %6, align 2
  br label %31

31:                                               ; preds = %26, %23
  %32 = load i32, ptr @local_flag, align 4
  %33 = icmp ne i32 %32, 0
  br i1 %33, label %34, label %39

34:                                               ; preds = %31
  %35 = load i16, ptr %6, align 2
  %36 = zext i16 %35 to i64
  %37 = or i64 %36, 16
  %38 = trunc i64 %37 to i16
  store i16 %38, ptr %6, align 2
  br label %39

39:                                               ; preds = %34, %31
  %40 = load i32, ptr @sibling_flag, align 4
  %41 = icmp ne i32 %40, 0
  br i1 %41, label %42, label %47

42:                                               ; preds = %39
  %43 = load i16, ptr %6, align 2
  %44 = zext i16 %43 to i64
  %45 = or i64 %44, 96
  %46 = trunc i64 %45 to i16
  store i16 %46, ptr %6, align 2
  br label %47

47:                                               ; preds = %42, %39
  %48 = load ptr, ptr @old_job_info_ptr, align 8
  %49 = icmp ne ptr %48, null
  br i1 %49, label %50, label %90

50:                                               ; preds = %47
  %51 = load i16, ptr @scontrol_load_job.last_show_flags, align 2
  %52 = zext i16 %51 to i32
  %53 = load i16, ptr %6, align 2
  %54 = zext i16 %53 to i32
  %55 = icmp ne i32 %52, %54
  br i1 %55, label %56, label %59

56:                                               ; preds = %50
  %57 = load ptr, ptr @old_job_info_ptr, align 8
  %58 = getelementptr inbounds nuw %struct.job_info_msg, ptr %57, i32 0, i32 1
  store i64 0, ptr %58, align 8
  br label %59

59:                                               ; preds = %56, %50
  %60 = load i32, ptr %4, align 4
  %61 = icmp ne i32 %60, 0
  br i1 %61, label %62, label %66

62:                                               ; preds = %59
  %63 = load i32, ptr %4, align 4
  %64 = load i16, ptr %6, align 2
  %65 = call i32 @slurm_load_job(ptr noundef %7, i32 noundef %63, i16 noundef zeroext %64)
  store i32 %65, ptr %5, align 4
  br label %72

66:                                               ; preds = %59
  %67 = load ptr, ptr @old_job_info_ptr, align 8
  %68 = getelementptr inbounds nuw %struct.job_info_msg, ptr %67, i32 0, i32 1
  %69 = load i64, ptr %68, align 8
  %70 = load i16, ptr %6, align 2
  %71 = call i32 @slurm_load_jobs(i64 noundef %69, ptr noundef %7, i16 noundef zeroext %70)
  store i32 %71, ptr %5, align 4
  br label %72

72:                                               ; preds = %66, %62
  %73 = load i32, ptr %5, align 4
  %74 = icmp eq i32 %73, 0
  br i1 %74, label %75, label %77

75:                                               ; preds = %72
  %76 = load ptr, ptr @old_job_info_ptr, align 8
  call void @slurm_free_job_info_msg(ptr noundef %76)
  br label %89

77:                                               ; preds = %72
  %78 = call ptr @__errno_location() #10
  %79 = load i32, ptr %78, align 4
  %80 = icmp eq i32 %79, 1900
  br i1 %80, label %81, label %88

81:                                               ; preds = %77
  %82 = load ptr, ptr @old_job_info_ptr, align 8
  store ptr %82, ptr %7, align 8
  store i32 0, ptr %5, align 4
  %83 = load i32, ptr @quiet_flag, align 4
  %84 = icmp eq i32 %83, -1
  br i1 %84, label %85, label %87

85:                                               ; preds = %81
  %86 = call i32 (ptr, ...) @printf(ptr noundef @.str)
  br label %87

87:                                               ; preds = %85, %81
  br label %88

88:                                               ; preds = %87, %77
  br label %89

89:                                               ; preds = %88, %75
  br label %101

90:                                               ; preds = %47
  %91 = load i32, ptr %4, align 4
  %92 = icmp ne i32 %91, 0
  br i1 %92, label %93, label %97

93:                                               ; preds = %90
  %94 = load i32, ptr %4, align 4
  %95 = load i16, ptr %6, align 2
  %96 = call i32 @slurm_load_job(ptr noundef %7, i32 noundef %94, i16 noundef zeroext %95)
  store i32 %96, ptr %5, align 4
  br label %100

97:                                               ; preds = %90
  %98 = load i16, ptr %6, align 2
  %99 = call i32 @slurm_load_jobs(i64 noundef 0, ptr noundef %7, i16 noundef zeroext %98)
  store i32 %99, ptr %5, align 4
  br label %100

100:                                              ; preds = %97, %93
  br label %101

101:                                              ; preds = %100, %89
  %102 = load i32, ptr %5, align 4
  %103 = icmp eq i32 %102, 0
  br i1 %103, label %104, label %115

104:                                              ; preds = %101
  %105 = load ptr, ptr %7, align 8
  store ptr %105, ptr @old_job_info_ptr, align 8
  %106 = load i32, ptr %4, align 4
  %107 = icmp ne i32 %106, 0
  br i1 %107, label %108, label %111

108:                                              ; preds = %104
  %109 = load ptr, ptr @old_job_info_ptr, align 8
  %110 = getelementptr inbounds nuw %struct.job_info_msg, ptr %109, i32 0, i32 1
  store i64 0, ptr %110, align 8
  br label %111

111:                                              ; preds = %108, %104
  %112 = load i16, ptr %6, align 2
  store i16 %112, ptr @scontrol_load_job.last_show_flags, align 2
  %113 = load ptr, ptr %7, align 8
  %114 = load ptr, ptr %3, align 8
  store ptr %113, ptr %114, align 8
  br label %115

115:                                              ; preds = %111, %101
  %116 = load i32, ptr %5, align 4
  call void @llvm.lifetime.end.p0(i64 8, ptr %7) #9
  call void @llvm.lifetime.end.p0(i64 2, ptr %6) #9
  call void @llvm.lifetime.end.p0(i64 4, ptr %5) #9
  ret i32 %116
}