; Function Attrs: nounwind uwtable
define dso_local i32 @scontrol_load_job(ptr noundef writeonly captures(none) %0, i32 noundef %1) local_unnamed_addr #0 {
  %3 = alloca ptr, align 8
  call void @llvm.lifetime.start.p0(i64 8, ptr nonnull %3) #16
  store ptr null, ptr %3, align 8
  %4 = load i32, ptr @all_flag, align 4
  %.not = icmp ne i32 %4, 0
  %spec.select = zext i1 %.not to i16
  %5 = load i32, ptr @detail_flag, align 4
  %.not24 = icmp eq i32 %5, 0
  %6 = or disjoint i16 %spec.select, 2
  %.1 = select i1 %.not24, i16 %spec.select, i16 %6
  %7 = load i32, ptr @federation_flag, align 4
  %.not25 = icmp eq i32 %7, 0
  %8 = or disjoint i16 %.1, 64
  %.2 = select i1 %.not25, i16 %.1, i16 %8
  %9 = load i32, ptr @local_flag, align 4
  %.not26 = icmp eq i32 %9, 0
  %10 = or disjoint i16 %.2, 16
  %.3 = select i1 %.not26, i16 %.2, i16 %10
  %11 = load i32, ptr @sibling_flag, align 4
  %.not27 = icmp eq i32 %11, 0
  %12 = or i16 %.3, 96
  %.4 = select i1 %.not27, i16 %.3, i16 %12
  %13 = load ptr, ptr @old_job_info_ptr, align 8
  %.not28 = icmp eq ptr %13, null
  br i1 %.not28, label %38, label %14

14:                                               ; preds = %2
  %15 = load i16, ptr @scontrol_load_job.last_show_flags, align 2
  %.not30 = icmp eq i16 %15, %.4
  br i1 %.not30, label %18, label %16

16:                                               ; preds = %14
  %17 = getelementptr inbounds nuw i8, ptr %13, i64 8
  store i64 0, ptr %17, align 8
  br label %18

18:                                               ; preds = %16, %14
  %.not31 = icmp eq i32 %1, 0
  br i1 %.not31, label %21, label %19

19:                                               ; preds = %18
  %20 = call i32 @slurm_load_job(ptr noundef nonnull %3, i32 noundef %1, i16 noundef zeroext %.4) #16
  br label %25

21:                                               ; preds = %18
  %22 = getelementptr inbounds nuw i8, ptr %13, i64 8
  %23 = load i64, ptr %22, align 8
  %24 = call i32 @slurm_load_jobs(i64 noundef %23, ptr noundef nonnull %3, i16 noundef zeroext %.4) #16
  br label %25

25:                                               ; preds = %21, %19
  %.019 = phi i32 [ %20, %19 ], [ %24, %21 ]
  %26 = icmp eq i32 %.019, 0
  br i1 %26, label %27, label %29

27:                                               ; preds = %25
  %28 = load ptr, ptr @old_job_info_ptr, align 8
  call void @slurm_free_job_info_msg(ptr noundef %28) #16
  br label %.thread

29:                                               ; preds = %25
  %30 = tail call ptr @__errno_location() #17
  %31 = load i32, ptr %30, align 4
  %32 = icmp eq i32 %31, 1900
  br i1 %32, label %33, label %.thread36

33:                                               ; preds = %29
  %34 = load ptr, ptr @old_job_info_ptr, align 8
  store ptr %34, ptr %3, align 8
  %35 = load i32, ptr @quiet_flag, align 4
  %36 = icmp eq i32 %35, -1
  br i1 %36, label %37, label %.thread

37:                                               ; preds = %33
  %puts = call i32 @puts(ptr nonnull dereferenceable(1) @str)
  br label %.thread

38:                                               ; preds = %2
  %.not29 = icmp eq i32 %1, 0
  br i1 %.not29, label %41, label %39

39:                                               ; preds = %38
  %40 = call i32 @slurm_load_job(ptr noundef nonnull %3, i32 noundef %1, i16 noundef zeroext %.4) #16
  br label %43

41:                                               ; preds = %38
  %42 = call i32 @slurm_load_jobs(i64 noundef 0, ptr noundef nonnull %3, i16 noundef zeroext %.4) #16
  br label %43

43:                                               ; preds = %39, %41
  %.120 = phi i32 [ %40, %39 ], [ %42, %41 ]
  %44 = icmp eq i32 %.120, 0
  br i1 %44, label %.thread, label %.thread36

.thread:                                          ; preds = %33, %37, %27, %43
  %45 = load ptr, ptr %3, align 8
  store ptr %45, ptr @old_job_info_ptr, align 8
  %.not32 = icmp eq i32 %1, 0
  br i1 %.not32, label %48, label %46

46:                                               ; preds = %.thread
  %47 = getelementptr inbounds nuw i8, ptr %45, i64 8
  store i64 0, ptr %47, align 8
  br label %48

48:                                               ; preds = %46, %.thread
  store i16 %.4, ptr @scontrol_load_job.last_show_flags, align 2
  store ptr %45, ptr %0, align 8
  br label %.thread36

.thread36:                                        ; preds = %29, %48, %43
  %.12034 = phi i32 [ 0, %48 ], [ %.120, %43 ], [ %.019, %29 ]
  call void @llvm.lifetime.end.p0(i64 8, ptr nonnull %3) #16
  ret i32 %.12034
}